ARM GAS  C:\Users\LASER_2\AppData\Local\Temp\cc1aLcAs.s 			page 1


   1              		.syntax unified
   2              		.cpu cortex-m3
   3              		.fpu softvfp
   4              		.eabi_attribute 20, 1
   5              		.eabi_attribute 21, 1
   6              		.eabi_attribute 23, 3
   7              		.eabi_attribute 24, 1
   8              		.eabi_attribute 25, 1
   9              		.eabi_attribute 26, 1
  10              		.eabi_attribute 30, 1
  11              		.eabi_attribute 34, 1
  12              		.eabi_attribute 18, 4
  13              		.thumb
  14              		.syntax unified
  15              		.file	"main.c"
  16              		.text
  17              	.Ltext0:
  18              		.cfi_sections	.debug_frame
  19              		.section	.text.InterrupRx,"ax",%progbits
  20              		.align	2
  21              		.global	InterrupRx
  22              		.thumb
  23              		.thumb_func
  24              		.type	InterrupRx, %function
  25              	InterrupRx:
  26              	.LFB80:
  27              		.file 1 "main.c"
   1:main.c        **** #include "project.h"
   2:main.c        **** #include <string.h>
   3:main.c        **** #include <stdio.h>
   4:main.c        **** #include <stdbool.h>
   5:main.c        **** 
   6:main.c        **** #define GP2Y0E         (0x80)>>1
   7:main.c        **** #define SHIFT_BYTE      0x02 //64 cm shift = 2 128 cm shift = 1
   8:main.c        **** #define SHIFT_ADDR      0x35
   9:main.c        **** #define DISTANCE_ADDR1  0x5E
  10:main.c        **** #define DISTANCE_ADDR2  0x5F
  11:main.c        **** #define RIGHT_EDGE_ADDR 0xF8 // C
  12:main.c        **** #define LEFT_EDGE_ADDR  0xF9 // A
  13:main.c        **** #define PEAK_EDGE_ADDR  0xFA // B
  14:main.c        **** 
  15:main.c        **** char buffer[12]={};
  16:main.c        **** volatile char dato;
  17:main.c        **** char distance_cm=0;
  18:main.c        **** 
  19:main.c        **** 
  20:main.c        **** void DS_beginread (void){
  21:main.c        ****         do{
  22:main.c        ****                 //Espera mienstras el esclavo le responde
  23:main.c        ****         }while(I2C_MasterSendStart(GP2Y0E, I2C_WRITE_XFER_MODE)!=I2C_MSTR_NO_ERROR);
  24:main.c        **** }
  25:main.c        **** void DS_beginwrite(void){
  26:main.c        ****         do{
  27:main.c        ****                 //Espera mienstras el esclavo le responde
  28:main.c        ****     }while(I2C_MasterSendStart(GP2Y0E, I2C_READ_XFER_MODE)!=I2C_MSTR_NO_ERROR);
  29:main.c        **** }
  30:main.c        **** void DS_init(void){
ARM GAS  C:\Users\LASER_2\AppData\Local\Temp\cc1aLcAs.s 			page 2


  31:main.c        ****     //Funcion de configuracion o de escritura de registros
  32:main.c        ****     DS_beginread();
  33:main.c        ****     I2C_MasterWriteByte(SHIFT_ADDR);//Pone direccion de memoria que quiere leer 
  34:main.c        ****     I2C_MasterSendStop(); 
  35:main.c        ****     DS_beginwrite();
  36:main.c        ****     sprintf(buffer,"shift %02X\n\r",I2C_MasterReadByte(I2C_NAK_DATA));//lo codifica en ascci
  37:main.c        ****     I2C_MasterSendStop();
  38:main.c        ****     UART_PutString(buffer);
  39:main.c        **** }
  40:main.c        **** 
  41:main.c        **** void DS_get_data(){   
  42:main.c        ****     char datai2c[2]={0,0};
  43:main.c        ****     DS_beginread();
  44:main.c        ****     I2C_MasterWriteByte(DISTANCE_ADDR1);//Pone direccion de memoria que quiere leer 
  45:main.c        ****     I2C_MasterSendStop(); 
  46:main.c        ****     DS_beginwrite();
  47:main.c        ****     datai2c[0]=I2C_MasterReadByte(I2C_NAK_DATA);//lo codifica en ascci
  48:main.c        ****     datai2c[1]=I2C_MasterReadByte(I2C_NAK_DATA);
  49:main.c        ****     I2C_MasterSendStop();
  50:main.c        ****     distance_cm = (datai2c[0]*16+datai2c[1])/64;//calculo de distancia
  51:main.c        **** }
  52:main.c        **** 
  53:main.c        **** 
  54:main.c        **** char DS_read(char adress){                   
  55:main.c        ****     char data;
  56:main.c        ****     DS_beginread();
  57:main.c        ****     I2C_MasterWriteByte(adress);//Pone direccion de memoria que quiere leer 
  58:main.c        ****     I2C_MasterSendStop(); 
  59:main.c        ****     DS_beginwrite();
  60:main.c        ****     data=I2C_MasterReadByte(I2C_NAK_DATA);//lo codifica en ascci
  61:main.c        ****     I2C_MasterSendStop();
  62:main.c        ****     return data;
  63:main.c        **** }
  64:main.c        **** 
  65:main.c        **** void DS_write(char adress, char load){
  66:main.c        **** DS_beginwrite();
  67:main.c        **** I2C_MasterWriteByte(adress);
  68:main.c        **** I2C_MasterWriteByte(load);
  69:main.c        **** I2C_MasterSendStop();
  70:main.c        **** }
  71:main.c        **** 
  72:main.c        **** void e_fuse_stage1() {
  73:main.c        ****     DS_write(0xEC, 0xFF);
  74:main.c        ****     VDAC8_SetValue(206);
  75:main.c        **** }
  76:main.c        **** 
  77:main.c        **** /*
  78:main.c        ****  * (Fig.40 E-Fuse Program Flow)
  79:main.c        ****  * Stage 2
  80:main.c        ****  * Data=0x00 is set in Address=0xC8.
  81:main.c        ****  */
  82:main.c        **** void e_fuse_stage2() {
  83:main.c        **** 
  84:main.c        ****     DS_write(0xC8, 0x00);
  85:main.c        **** }
  86:main.c        **** 
  87:main.c        **** /*
ARM GAS  C:\Users\LASER_2\AppData\Local\Temp\cc1aLcAs.s 			page 3


  88:main.c        ****  * (Fig.40 E-Fuse Program Flow)
  89:main.c        ****  * Stage 3
  90:main.c        ****  * Data=0x45 is set in Address=0xC9.
  91:main.c        ****  * + programming bit #: 5 => 5 - 1 = 4
  92:main.c        ****  * + bank value: 5 => Bank E
  93:main.c        ****  */
  94:main.c        **** void e_fuse_stage3() {
  95:main.c        ****   
  96:main.c        ****     DS_write(0xC9, 0x45);
  97:main.c        **** }
  98:main.c        **** 
  99:main.c        **** /*
 100:main.c        ****  * (Fig.40 E-Fuse Program Flow)
 101:main.c        ****  * Stage 4
 102:main.c        ****  * Data=0x01 is set in Address=0xCD.
 103:main.c        ****  * (Data=0x01 for slave address being changed to 0x10(write) and 0x11(read))
 104:main.c        ****  * @param new_address 0-15 (Default address is 8, 0x80 for writing and 0x81 for reading)
 105:main.c        ****  */
 106:main.c        **** void e_fuse_stage4(uint8_t new_address) {
 107:main.c        ****     
 108:main.c        ****     DS_write(0xCD, new_address);
 109:main.c        **** }
 110:main.c        **** 
 111:main.c        **** /*
 112:main.c        ****  * (Fig.40 E-Fuse Program Flow)
 113:main.c        ****  * Stage 5
 114:main.c        ****  * Data=0x01 is set in Address=0xCA.
 115:main.c        ****  * Wait for 500us.
 116:main.c        ****  */
 117:main.c        **** void e_fuse_stage5() {
 118:main.c        ****    
 119:main.c        ****     DS_write(0xCA, 0x01);
 120:main.c        ****     CyDelay(500);
 121:main.c        **** }
 122:main.c        **** 
 123:main.c        **** /*
 124:main.c        ****  * (Fig.40 E-Fuse Program Flow)
 125:main.c        ****  * Stage 6
 126:main.c        ****  * Data=0x00 is set in Address=0xCA.
 127:main.c        ****  * Vpp terminal is grounded.
 128:main.c        ****  */
 129:main.c        **** void e_fuse_stage6() {
 130:main.c        ****    
 131:main.c        ****     DS_write(0xCA, 0x00);
 132:main.c        ****     VDAC8_SetValue(0);
 133:main.c        **** }
 134:main.c        **** 
 135:main.c        **** /*
 136:main.c        ****  * (Fig.40 E-Fuse Program Flow)
 137:main.c        ****  * Stage 7
 138:main.c        ****  * Data=0x00 is set in Address=0xEF.
 139:main.c        ****  * Data=0x40 is set in Address=0xC8.
 140:main.c        ****  * Data=0x00 is set in Address=0xC8.
 141:main.c        ****  */
 142:main.c        **** void e_fuse_stage7() {
 143:main.c        ****    
 144:main.c        ****     DS_write(0xEF, 0x00);
ARM GAS  C:\Users\LASER_2\AppData\Local\Temp\cc1aLcAs.s 			page 4


 145:main.c        ****     DS_write(0xC8, 0x40);
 146:main.c        ****     DS_write(0xC8, 0x00);
 147:main.c        **** }
 148:main.c        **** 
 149:main.c        **** /*
 150:main.c        ****  * (Fig.40 E-Fuse Program Flow)
 151:main.c        ****  * Stage 8
 152:main.c        ****  * Data=0x06 is set in Address=0xEE.
 153:main.c        ****  */
 154:main.c        **** void e_fuse_stage8() {
 155:main.c        ****    
 156:main.c        ****     DS_write(0xEE, 0x06);
 157:main.c        **** }
 158:main.c        **** 
 159:main.c        **** /*
 160:main.c        ****  * (Fig.40 E-Fuse Program Flow)
 161:main.c        ****  * Stage 9
 162:main.c        ****  * Data=0xFF is set in Address=0xEC.
 163:main.c        ****  * Data=0x03 is set in Address=0xEF.
 164:main.c        ****  * Read out the data in Address=0x27.
 165:main.c        ****  * Data=0x00 is set in Address=0xEF.
 166:main.c        ****  * Data=0x7F is set in Address=0xEC.
 167:main.c        ****  *
 168:main.c        ****  * @return 0 for success, 1 for failure : 0x27[4:0] & 0b10000(0x10)
 169:main.c        ****  */
 170:main.c        **** uint8_t e_fuse_stage9() {
 171:main.c        ****    
 172:main.c        ****     // Table.20 List of E-Fuse program flow and setting value
 173:main.c        ****     DS_write(0xEF, 0x00); // add this though it's missing in 12-6 Example of E-Fuse Programming
 174:main.c        ****     DS_write(0xEC, 0xFF);
 175:main.c        ****     DS_write(0xEF, 0x03);
 176:main.c        ****     uint8_t check_value = DS_read(0x27);
 177:main.c        ****     uint8_t check = check_value & 0x1f;
 178:main.c        ****     uint8_t success = check & 0x10;
 179:main.c        ****     // When lower 5bits data[4:0] is 00001, E-Fuse program is finished.
 180:main.c        ****     // When lower 5bits data[4:0] is not 00001, go to stage10(bit replacement).
 181:main.c        ****     DS_write(0xEF, 0x00);
 182:main.c        ****     DS_write(0xEC, 0x7F);
 183:main.c        ****     // Check Result
 184:main.c        ****     return success;
 185:main.c        **** }
 186:main.c        **** void e_fuse_run( uint8_t new_address) {
 187:main.c        ****     if (new_address == GP2Y0E) {
 188:main.c        ****         UART_PutString("[ERROR] The new address must be other than 0x08!\r\n");
 189:main.c        ****         return;
 190:main.c        ****     }
 191:main.c        ****     if (new_address > 0x0f) {
 192:main.c        ****         UART_PutString("[ERROR] The new address must be 0x0f or lower!\r\n");
 193:main.c        ****         return;
 194:main.c        ****     }
 195:main.c        ****     VDAC8_SetValue(0);
 196:main.c        ****     CyDelayUs(500);
 197:main.c        ****     e_fuse_stage1();
 198:main.c        ****     e_fuse_stage2();
 199:main.c        ****     e_fuse_stage3();
 200:main.c        ****     e_fuse_stage4( new_address);
 201:main.c        ****     e_fuse_stage5();
ARM GAS  C:\Users\LASER_2\AppData\Local\Temp\cc1aLcAs.s 			page 5


 202:main.c        ****     e_fuse_stage6();
 203:main.c        ****     e_fuse_stage7();
 204:main.c        ****     e_fuse_stage8();
 205:main.c        ****     const uint8_t result = e_fuse_stage9();
 206:main.c        ****     sprintf(buffer,"e_fuse_stage9():result => %d (0=success)\r\n", result);//lo codifica en ascci
 207:main.c        ****     UART_PutString(buffer);
 208:main.c        **** }
 209:main.c        **** 
 210:main.c        **** 
 211:main.c        **** CY_ISR(InterrupRx){
  28              		.loc 1 211 0
  29              		.cfi_startproc
  30              		@ args = 0, pretend = 0, frame = 0
  31              		@ frame_needed = 0, uses_anonymous_args = 0
  32 0000 08B5     		push	{r3, lr}
  33              		.cfi_def_cfa_offset 8
  34              		.cfi_offset 3, -8
  35              		.cfi_offset 14, -4
 212:main.c        ****     dato=UART_GetChar();//recibe el dato del bluetooth
  36              		.loc 1 212 0
  37 0002 FFF7FEFF 		bl	UART_GetChar
  38              	.LVL0:
  39 0006 024B     		ldr	r3, .L3
  40 0008 1870     		strb	r0, [r3]
 213:main.c        ****     switch (dato){
  41              		.loc 1 213 0
  42 000a 1B78     		ldrb	r3, [r3]	@ zero_extendqisi2
  43 000c 08BD     		pop	{r3, pc}
  44              	.L4:
  45 000e 00BF     		.align	2
  46              	.L3:
  47 0010 00000000 		.word	dato
  48              		.cfi_endproc
  49              	.LFE80:
  50              		.size	InterrupRx, .-InterrupRx
  51              		.section	.text.DS_beginread,"ax",%progbits
  52              		.align	2
  53              		.global	DS_beginread
  54              		.thumb
  55              		.thumb_func
  56              		.type	DS_beginread, %function
  57              	DS_beginread:
  58              	.LFB64:
  20:main.c        ****         do{
  59              		.loc 1 20 0
  60              		.cfi_startproc
  61              		@ args = 0, pretend = 0, frame = 0
  62              		@ frame_needed = 0, uses_anonymous_args = 0
  63 0000 08B5     		push	{r3, lr}
  64              		.cfi_def_cfa_offset 8
  65              		.cfi_offset 3, -8
  66              		.cfi_offset 14, -4
  67              	.L6:
  23:main.c        **** }
  68              		.loc 1 23 0 discriminator 1
  69 0002 0021     		movs	r1, #0
  70 0004 4020     		movs	r0, #64
ARM GAS  C:\Users\LASER_2\AppData\Local\Temp\cc1aLcAs.s 			page 6


  71 0006 FFF7FEFF 		bl	I2C_MasterSendStart
  72              	.LVL1:
  73 000a 0028     		cmp	r0, #0
  74 000c F9D1     		bne	.L6
  24:main.c        **** void DS_beginwrite(void){
  75              		.loc 1 24 0
  76 000e 08BD     		pop	{r3, pc}
  77              		.cfi_endproc
  78              	.LFE64:
  79              		.size	DS_beginread, .-DS_beginread
  80              		.section	.text.DS_beginwrite,"ax",%progbits
  81              		.align	2
  82              		.global	DS_beginwrite
  83              		.thumb
  84              		.thumb_func
  85              		.type	DS_beginwrite, %function
  86              	DS_beginwrite:
  87              	.LFB65:
  25:main.c        ****         do{
  88              		.loc 1 25 0
  89              		.cfi_startproc
  90              		@ args = 0, pretend = 0, frame = 0
  91              		@ frame_needed = 0, uses_anonymous_args = 0
  92 0000 08B5     		push	{r3, lr}
  93              		.cfi_def_cfa_offset 8
  94              		.cfi_offset 3, -8
  95              		.cfi_offset 14, -4
  96              	.L9:
  28:main.c        **** }
  97              		.loc 1 28 0 discriminator 1
  98 0002 0121     		movs	r1, #1
  99 0004 4020     		movs	r0, #64
 100 0006 FFF7FEFF 		bl	I2C_MasterSendStart
 101              	.LVL2:
 102 000a 0028     		cmp	r0, #0
 103 000c F9D1     		bne	.L9
  29:main.c        **** void DS_init(void){
 104              		.loc 1 29 0
 105 000e 08BD     		pop	{r3, pc}
 106              		.cfi_endproc
 107              	.LFE65:
 108              		.size	DS_beginwrite, .-DS_beginwrite
 109              		.section	.text.DS_init,"ax",%progbits
 110              		.align	2
 111              		.global	DS_init
 112              		.thumb
 113              		.thumb_func
 114              		.type	DS_init, %function
 115              	DS_init:
 116              	.LFB66:
  30:main.c        ****     //Funcion de configuracion o de escritura de registros
 117              		.loc 1 30 0
 118              		.cfi_startproc
 119              		@ args = 0, pretend = 0, frame = 0
 120              		@ frame_needed = 0, uses_anonymous_args = 0
 121 0000 10B5     		push	{r4, lr}
 122              		.cfi_def_cfa_offset 8
ARM GAS  C:\Users\LASER_2\AppData\Local\Temp\cc1aLcAs.s 			page 7


 123              		.cfi_offset 4, -8
 124              		.cfi_offset 14, -4
  32:main.c        ****     I2C_MasterWriteByte(SHIFT_ADDR);//Pone direccion de memoria que quiere leer 
 125              		.loc 1 32 0
 126 0002 FFF7FEFF 		bl	DS_beginread
 127              	.LVL3:
  33:main.c        ****     I2C_MasterSendStop(); 
 128              		.loc 1 33 0
 129 0006 3520     		movs	r0, #53
 130 0008 FFF7FEFF 		bl	I2C_MasterWriteByte
 131              	.LVL4:
  34:main.c        ****     DS_beginwrite();
 132              		.loc 1 34 0
 133 000c FFF7FEFF 		bl	I2C_MasterSendStop
 134              	.LVL5:
  35:main.c        ****     sprintf(buffer,"shift %02X\n\r",I2C_MasterReadByte(I2C_NAK_DATA));//lo codifica en ascci
 135              		.loc 1 35 0
 136 0010 FFF7FEFF 		bl	DS_beginwrite
 137              	.LVL6:
  36:main.c        ****     I2C_MasterSendStop();
 138              		.loc 1 36 0
 139 0014 0020     		movs	r0, #0
 140 0016 FFF7FEFF 		bl	I2C_MasterReadByte
 141              	.LVL7:
 142 001a 064C     		ldr	r4, .L13
 143 001c 0246     		mov	r2, r0
 144 001e 0649     		ldr	r1, .L13+4
 145 0020 2046     		mov	r0, r4
 146 0022 FFF7FEFF 		bl	sprintf
 147              	.LVL8:
  37:main.c        ****     UART_PutString(buffer);
 148              		.loc 1 37 0
 149 0026 FFF7FEFF 		bl	I2C_MasterSendStop
 150              	.LVL9:
  38:main.c        **** }
 151              		.loc 1 38 0
 152 002a 2046     		mov	r0, r4
 153 002c FFF7FEFF 		bl	UART_PutString
 154              	.LVL10:
 155 0030 10BD     		pop	{r4, pc}
 156              	.L14:
 157 0032 00BF     		.align	2
 158              	.L13:
 159 0034 00000000 		.word	.LANCHOR0
 160 0038 00000000 		.word	.LC0
 161              		.cfi_endproc
 162              	.LFE66:
 163              		.size	DS_init, .-DS_init
 164              		.section	.text.DS_get_data,"ax",%progbits
 165              		.align	2
 166              		.global	DS_get_data
 167              		.thumb
 168              		.thumb_func
 169              		.type	DS_get_data, %function
 170              	DS_get_data:
 171              	.LFB67:
  41:main.c        ****     char datai2c[2]={0,0};
ARM GAS  C:\Users\LASER_2\AppData\Local\Temp\cc1aLcAs.s 			page 8


 172              		.loc 1 41 0
 173              		.cfi_startproc
 174              		@ args = 0, pretend = 0, frame = 0
 175              		@ frame_needed = 0, uses_anonymous_args = 0
 176 0000 38B5     		push	{r3, r4, r5, lr}
 177              		.cfi_def_cfa_offset 16
 178              		.cfi_offset 3, -16
 179              		.cfi_offset 4, -12
 180              		.cfi_offset 5, -8
 181              		.cfi_offset 14, -4
  43:main.c        ****     I2C_MasterWriteByte(DISTANCE_ADDR1);//Pone direccion de memoria que quiere leer 
 182              		.loc 1 43 0
 183 0002 FFF7FEFF 		bl	DS_beginread
 184              	.LVL11:
  44:main.c        ****     I2C_MasterSendStop(); 
 185              		.loc 1 44 0
 186 0006 5E20     		movs	r0, #94
 187 0008 FFF7FEFF 		bl	I2C_MasterWriteByte
 188              	.LVL12:
  45:main.c        ****     DS_beginwrite();
 189              		.loc 1 45 0
 190 000c FFF7FEFF 		bl	I2C_MasterSendStop
 191              	.LVL13:
  46:main.c        ****     datai2c[0]=I2C_MasterReadByte(I2C_NAK_DATA);//lo codifica en ascci
 192              		.loc 1 46 0
 193 0010 FFF7FEFF 		bl	DS_beginwrite
 194              	.LVL14:
  47:main.c        ****     datai2c[1]=I2C_MasterReadByte(I2C_NAK_DATA);
 195              		.loc 1 47 0
 196 0014 0020     		movs	r0, #0
 197 0016 FFF7FEFF 		bl	I2C_MasterReadByte
 198              	.LVL15:
 199 001a 0546     		mov	r5, r0
  48:main.c        ****     I2C_MasterSendStop();
 200              		.loc 1 48 0
 201 001c 0020     		movs	r0, #0
 202 001e FFF7FEFF 		bl	I2C_MasterReadByte
 203              	.LVL16:
 204 0022 0446     		mov	r4, r0
  49:main.c        ****     distance_cm = (datai2c[0]*16+datai2c[1])/64;//calculo de distancia
 205              		.loc 1 49 0
 206 0024 FFF7FEFF 		bl	I2C_MasterSendStop
 207              	.LVL17:
  50:main.c        **** }
 208              		.loc 1 50 0
 209 0028 14EB0514 		adds	r4, r4, r5, lsl #4
 210 002c 00D5     		bpl	.L16
 211 002e 3F34     		adds	r4, r4, #63
 212              	.L16:
 213 0030 A411     		asrs	r4, r4, #6
 214 0032 014B     		ldr	r3, .L18
 215 0034 1C73     		strb	r4, [r3, #12]
 216 0036 38BD     		pop	{r3, r4, r5, pc}
 217              	.L19:
 218              		.align	2
 219              	.L18:
 220 0038 00000000 		.word	.LANCHOR0
ARM GAS  C:\Users\LASER_2\AppData\Local\Temp\cc1aLcAs.s 			page 9


 221              		.cfi_endproc
 222              	.LFE67:
 223              		.size	DS_get_data, .-DS_get_data
 224              		.section	.text.DS_read,"ax",%progbits
 225              		.align	2
 226              		.global	DS_read
 227              		.thumb
 228              		.thumb_func
 229              		.type	DS_read, %function
 230              	DS_read:
 231              	.LFB68:
  54:main.c        ****     char data;
 232              		.loc 1 54 0
 233              		.cfi_startproc
 234              		@ args = 0, pretend = 0, frame = 0
 235              		@ frame_needed = 0, uses_anonymous_args = 0
 236              	.LVL18:
 237 0000 10B5     		push	{r4, lr}
 238              		.cfi_def_cfa_offset 8
 239              		.cfi_offset 4, -8
 240              		.cfi_offset 14, -4
 241 0002 0446     		mov	r4, r0
  56:main.c        ****     I2C_MasterWriteByte(adress);//Pone direccion de memoria que quiere leer 
 242              		.loc 1 56 0
 243 0004 FFF7FEFF 		bl	DS_beginread
 244              	.LVL19:
  57:main.c        ****     I2C_MasterSendStop(); 
 245              		.loc 1 57 0
 246 0008 2046     		mov	r0, r4
 247 000a FFF7FEFF 		bl	I2C_MasterWriteByte
 248              	.LVL20:
  58:main.c        ****     DS_beginwrite();
 249              		.loc 1 58 0
 250 000e FFF7FEFF 		bl	I2C_MasterSendStop
 251              	.LVL21:
  59:main.c        ****     data=I2C_MasterReadByte(I2C_NAK_DATA);//lo codifica en ascci
 252              		.loc 1 59 0
 253 0012 FFF7FEFF 		bl	DS_beginwrite
 254              	.LVL22:
  60:main.c        ****     I2C_MasterSendStop();
 255              		.loc 1 60 0
 256 0016 0020     		movs	r0, #0
 257 0018 FFF7FEFF 		bl	I2C_MasterReadByte
 258              	.LVL23:
 259 001c 0446     		mov	r4, r0
 260              	.LVL24:
  61:main.c        ****     return data;
 261              		.loc 1 61 0
 262 001e FFF7FEFF 		bl	I2C_MasterSendStop
 263              	.LVL25:
  63:main.c        **** 
 264              		.loc 1 63 0
 265 0022 2046     		mov	r0, r4
 266 0024 10BD     		pop	{r4, pc}
 267              		.cfi_endproc
 268              	.LFE68:
 269              		.size	DS_read, .-DS_read
ARM GAS  C:\Users\LASER_2\AppData\Local\Temp\cc1aLcAs.s 			page 10


 270 0026 00BF     		.section	.text.DS_write,"ax",%progbits
 271              		.align	2
 272              		.global	DS_write
 273              		.thumb
 274              		.thumb_func
 275              		.type	DS_write, %function
 276              	DS_write:
 277              	.LFB69:
  65:main.c        **** DS_beginwrite();
 278              		.loc 1 65 0
 279              		.cfi_startproc
 280              		@ args = 0, pretend = 0, frame = 0
 281              		@ frame_needed = 0, uses_anonymous_args = 0
 282              	.LVL26:
 283 0000 38B5     		push	{r3, r4, r5, lr}
 284              		.cfi_def_cfa_offset 16
 285              		.cfi_offset 3, -16
 286              		.cfi_offset 4, -12
 287              		.cfi_offset 5, -8
 288              		.cfi_offset 14, -4
 289 0002 0546     		mov	r5, r0
 290 0004 0C46     		mov	r4, r1
  66:main.c        **** I2C_MasterWriteByte(adress);
 291              		.loc 1 66 0
 292 0006 FFF7FEFF 		bl	DS_beginwrite
 293              	.LVL27:
  67:main.c        **** I2C_MasterWriteByte(load);
 294              		.loc 1 67 0
 295 000a 2846     		mov	r0, r5
 296 000c FFF7FEFF 		bl	I2C_MasterWriteByte
 297              	.LVL28:
  68:main.c        **** I2C_MasterSendStop();
 298              		.loc 1 68 0
 299 0010 2046     		mov	r0, r4
 300 0012 FFF7FEFF 		bl	I2C_MasterWriteByte
 301              	.LVL29:
  69:main.c        **** }
 302              		.loc 1 69 0
 303 0016 FFF7FEFF 		bl	I2C_MasterSendStop
 304              	.LVL30:
 305 001a 38BD     		pop	{r3, r4, r5, pc}
 306              		.cfi_endproc
 307              	.LFE69:
 308              		.size	DS_write, .-DS_write
 309              		.section	.text.e_fuse_stage1,"ax",%progbits
 310              		.align	2
 311              		.global	e_fuse_stage1
 312              		.thumb
 313              		.thumb_func
 314              		.type	e_fuse_stage1, %function
 315              	e_fuse_stage1:
 316              	.LFB70:
  72:main.c        ****     DS_write(0xEC, 0xFF);
 317              		.loc 1 72 0
 318              		.cfi_startproc
 319              		@ args = 0, pretend = 0, frame = 0
 320              		@ frame_needed = 0, uses_anonymous_args = 0
ARM GAS  C:\Users\LASER_2\AppData\Local\Temp\cc1aLcAs.s 			page 11


 321 0000 08B5     		push	{r3, lr}
 322              		.cfi_def_cfa_offset 8
 323              		.cfi_offset 3, -8
 324              		.cfi_offset 14, -4
  73:main.c        ****     VDAC8_SetValue(206);
 325              		.loc 1 73 0
 326 0002 FF21     		movs	r1, #255
 327 0004 EC20     		movs	r0, #236
 328 0006 FFF7FEFF 		bl	DS_write
 329              	.LVL31:
  74:main.c        **** }
 330              		.loc 1 74 0
 331 000a CE20     		movs	r0, #206
 332 000c FFF7FEFF 		bl	VDAC8_SetValue
 333              	.LVL32:
 334 0010 08BD     		pop	{r3, pc}
 335              		.cfi_endproc
 336              	.LFE70:
 337              		.size	e_fuse_stage1, .-e_fuse_stage1
 338 0012 00BF     		.section	.text.e_fuse_stage2,"ax",%progbits
 339              		.align	2
 340              		.global	e_fuse_stage2
 341              		.thumb
 342              		.thumb_func
 343              		.type	e_fuse_stage2, %function
 344              	e_fuse_stage2:
 345              	.LFB71:
  82:main.c        **** 
 346              		.loc 1 82 0
 347              		.cfi_startproc
 348              		@ args = 0, pretend = 0, frame = 0
 349              		@ frame_needed = 0, uses_anonymous_args = 0
 350 0000 08B5     		push	{r3, lr}
 351              		.cfi_def_cfa_offset 8
 352              		.cfi_offset 3, -8
 353              		.cfi_offset 14, -4
  84:main.c        **** }
 354              		.loc 1 84 0
 355 0002 0021     		movs	r1, #0
 356 0004 C820     		movs	r0, #200
 357 0006 FFF7FEFF 		bl	DS_write
 358              	.LVL33:
 359 000a 08BD     		pop	{r3, pc}
 360              		.cfi_endproc
 361              	.LFE71:
 362              		.size	e_fuse_stage2, .-e_fuse_stage2
 363              		.section	.text.e_fuse_stage3,"ax",%progbits
 364              		.align	2
 365              		.global	e_fuse_stage3
 366              		.thumb
 367              		.thumb_func
 368              		.type	e_fuse_stage3, %function
 369              	e_fuse_stage3:
 370              	.LFB72:
  94:main.c        ****   
 371              		.loc 1 94 0
 372              		.cfi_startproc
ARM GAS  C:\Users\LASER_2\AppData\Local\Temp\cc1aLcAs.s 			page 12


 373              		@ args = 0, pretend = 0, frame = 0
 374              		@ frame_needed = 0, uses_anonymous_args = 0
 375 0000 08B5     		push	{r3, lr}
 376              		.cfi_def_cfa_offset 8
 377              		.cfi_offset 3, -8
 378              		.cfi_offset 14, -4
  96:main.c        **** }
 379              		.loc 1 96 0
 380 0002 4521     		movs	r1, #69
 381 0004 C920     		movs	r0, #201
 382 0006 FFF7FEFF 		bl	DS_write
 383              	.LVL34:
 384 000a 08BD     		pop	{r3, pc}
 385              		.cfi_endproc
 386              	.LFE72:
 387              		.size	e_fuse_stage3, .-e_fuse_stage3
 388              		.section	.text.e_fuse_stage4,"ax",%progbits
 389              		.align	2
 390              		.global	e_fuse_stage4
 391              		.thumb
 392              		.thumb_func
 393              		.type	e_fuse_stage4, %function
 394              	e_fuse_stage4:
 395              	.LFB73:
 106:main.c        ****     
 396              		.loc 1 106 0
 397              		.cfi_startproc
 398              		@ args = 0, pretend = 0, frame = 0
 399              		@ frame_needed = 0, uses_anonymous_args = 0
 400              	.LVL35:
 401 0000 08B5     		push	{r3, lr}
 402              		.cfi_def_cfa_offset 8
 403              		.cfi_offset 3, -8
 404              		.cfi_offset 14, -4
 108:main.c        **** }
 405              		.loc 1 108 0
 406 0002 0146     		mov	r1, r0
 407 0004 CD20     		movs	r0, #205
 408              	.LVL36:
 409 0006 FFF7FEFF 		bl	DS_write
 410              	.LVL37:
 411 000a 08BD     		pop	{r3, pc}
 412              		.cfi_endproc
 413              	.LFE73:
 414              		.size	e_fuse_stage4, .-e_fuse_stage4
 415              		.section	.text.e_fuse_stage5,"ax",%progbits
 416              		.align	2
 417              		.global	e_fuse_stage5
 418              		.thumb
 419              		.thumb_func
 420              		.type	e_fuse_stage5, %function
 421              	e_fuse_stage5:
 422              	.LFB74:
 117:main.c        ****    
 423              		.loc 1 117 0
 424              		.cfi_startproc
 425              		@ args = 0, pretend = 0, frame = 0
ARM GAS  C:\Users\LASER_2\AppData\Local\Temp\cc1aLcAs.s 			page 13


 426              		@ frame_needed = 0, uses_anonymous_args = 0
 427 0000 08B5     		push	{r3, lr}
 428              		.cfi_def_cfa_offset 8
 429              		.cfi_offset 3, -8
 430              		.cfi_offset 14, -4
 119:main.c        ****     CyDelay(500);
 431              		.loc 1 119 0
 432 0002 0121     		movs	r1, #1
 433 0004 CA20     		movs	r0, #202
 434 0006 FFF7FEFF 		bl	DS_write
 435              	.LVL38:
 120:main.c        **** }
 436              		.loc 1 120 0
 437 000a 4FF4FA70 		mov	r0, #500
 438 000e FFF7FEFF 		bl	CyDelay
 439              	.LVL39:
 440 0012 08BD     		pop	{r3, pc}
 441              		.cfi_endproc
 442              	.LFE74:
 443              		.size	e_fuse_stage5, .-e_fuse_stage5
 444              		.section	.text.e_fuse_stage6,"ax",%progbits
 445              		.align	2
 446              		.global	e_fuse_stage6
 447              		.thumb
 448              		.thumb_func
 449              		.type	e_fuse_stage6, %function
 450              	e_fuse_stage6:
 451              	.LFB75:
 129:main.c        ****    
 452              		.loc 1 129 0
 453              		.cfi_startproc
 454              		@ args = 0, pretend = 0, frame = 0
 455              		@ frame_needed = 0, uses_anonymous_args = 0
 456 0000 08B5     		push	{r3, lr}
 457              		.cfi_def_cfa_offset 8
 458              		.cfi_offset 3, -8
 459              		.cfi_offset 14, -4
 131:main.c        ****     VDAC8_SetValue(0);
 460              		.loc 1 131 0
 461 0002 0021     		movs	r1, #0
 462 0004 CA20     		movs	r0, #202
 463 0006 FFF7FEFF 		bl	DS_write
 464              	.LVL40:
 132:main.c        **** }
 465              		.loc 1 132 0
 466 000a 0020     		movs	r0, #0
 467 000c FFF7FEFF 		bl	VDAC8_SetValue
 468              	.LVL41:
 469 0010 08BD     		pop	{r3, pc}
 470              		.cfi_endproc
 471              	.LFE75:
 472              		.size	e_fuse_stage6, .-e_fuse_stage6
 473 0012 00BF     		.section	.text.e_fuse_stage7,"ax",%progbits
 474              		.align	2
 475              		.global	e_fuse_stage7
 476              		.thumb
 477              		.thumb_func
ARM GAS  C:\Users\LASER_2\AppData\Local\Temp\cc1aLcAs.s 			page 14


 478              		.type	e_fuse_stage7, %function
 479              	e_fuse_stage7:
 480              	.LFB76:
 142:main.c        ****    
 481              		.loc 1 142 0
 482              		.cfi_startproc
 483              		@ args = 0, pretend = 0, frame = 0
 484              		@ frame_needed = 0, uses_anonymous_args = 0
 485 0000 08B5     		push	{r3, lr}
 486              		.cfi_def_cfa_offset 8
 487              		.cfi_offset 3, -8
 488              		.cfi_offset 14, -4
 144:main.c        ****     DS_write(0xC8, 0x40);
 489              		.loc 1 144 0
 490 0002 0021     		movs	r1, #0
 491 0004 EF20     		movs	r0, #239
 492 0006 FFF7FEFF 		bl	DS_write
 493              	.LVL42:
 145:main.c        ****     DS_write(0xC8, 0x00);
 494              		.loc 1 145 0
 495 000a 4021     		movs	r1, #64
 496 000c C820     		movs	r0, #200
 497 000e FFF7FEFF 		bl	DS_write
 498              	.LVL43:
 146:main.c        **** }
 499              		.loc 1 146 0
 500 0012 0021     		movs	r1, #0
 501 0014 C820     		movs	r0, #200
 502 0016 FFF7FEFF 		bl	DS_write
 503              	.LVL44:
 504 001a 08BD     		pop	{r3, pc}
 505              		.cfi_endproc
 506              	.LFE76:
 507              		.size	e_fuse_stage7, .-e_fuse_stage7
 508              		.section	.text.e_fuse_stage8,"ax",%progbits
 509              		.align	2
 510              		.global	e_fuse_stage8
 511              		.thumb
 512              		.thumb_func
 513              		.type	e_fuse_stage8, %function
 514              	e_fuse_stage8:
 515              	.LFB77:
 154:main.c        ****    
 516              		.loc 1 154 0
 517              		.cfi_startproc
 518              		@ args = 0, pretend = 0, frame = 0
 519              		@ frame_needed = 0, uses_anonymous_args = 0
 520 0000 08B5     		push	{r3, lr}
 521              		.cfi_def_cfa_offset 8
 522              		.cfi_offset 3, -8
 523              		.cfi_offset 14, -4
 156:main.c        **** }
 524              		.loc 1 156 0
 525 0002 0621     		movs	r1, #6
 526 0004 EE20     		movs	r0, #238
 527 0006 FFF7FEFF 		bl	DS_write
 528              	.LVL45:
ARM GAS  C:\Users\LASER_2\AppData\Local\Temp\cc1aLcAs.s 			page 15


 529 000a 08BD     		pop	{r3, pc}
 530              		.cfi_endproc
 531              	.LFE77:
 532              		.size	e_fuse_stage8, .-e_fuse_stage8
 533              		.section	.text.e_fuse_stage9,"ax",%progbits
 534              		.align	2
 535              		.global	e_fuse_stage9
 536              		.thumb
 537              		.thumb_func
 538              		.type	e_fuse_stage9, %function
 539              	e_fuse_stage9:
 540              	.LFB78:
 170:main.c        ****    
 541              		.loc 1 170 0
 542              		.cfi_startproc
 543              		@ args = 0, pretend = 0, frame = 0
 544              		@ frame_needed = 0, uses_anonymous_args = 0
 545 0000 10B5     		push	{r4, lr}
 546              		.cfi_def_cfa_offset 8
 547              		.cfi_offset 4, -8
 548              		.cfi_offset 14, -4
 173:main.c        ****     DS_write(0xEC, 0xFF);
 549              		.loc 1 173 0
 550 0002 0021     		movs	r1, #0
 551 0004 EF20     		movs	r0, #239
 552 0006 FFF7FEFF 		bl	DS_write
 553              	.LVL46:
 174:main.c        ****     DS_write(0xEF, 0x03);
 554              		.loc 1 174 0
 555 000a FF21     		movs	r1, #255
 556 000c EC20     		movs	r0, #236
 557 000e FFF7FEFF 		bl	DS_write
 558              	.LVL47:
 175:main.c        ****     uint8_t check_value = DS_read(0x27);
 559              		.loc 1 175 0
 560 0012 0321     		movs	r1, #3
 561 0014 EF20     		movs	r0, #239
 562 0016 FFF7FEFF 		bl	DS_write
 563              	.LVL48:
 176:main.c        ****     uint8_t check = check_value & 0x1f;
 564              		.loc 1 176 0
 565 001a 2720     		movs	r0, #39
 566 001c FFF7FEFF 		bl	DS_read
 567              	.LVL49:
 178:main.c        ****     // When lower 5bits data[4:0] is 00001, E-Fuse program is finished.
 568              		.loc 1 178 0
 569 0020 00F01000 		and	r0, r0, #16
 570              	.LVL50:
 571 0024 C4B2     		uxtb	r4, r0
 572              	.LVL51:
 181:main.c        ****     DS_write(0xEC, 0x7F);
 573              		.loc 1 181 0
 574 0026 0021     		movs	r1, #0
 575 0028 EF20     		movs	r0, #239
 576 002a FFF7FEFF 		bl	DS_write
 577              	.LVL52:
 182:main.c        ****     // Check Result
ARM GAS  C:\Users\LASER_2\AppData\Local\Temp\cc1aLcAs.s 			page 16


 578              		.loc 1 182 0
 579 002e 7F21     		movs	r1, #127
 580 0030 EC20     		movs	r0, #236
 581 0032 FFF7FEFF 		bl	DS_write
 582              	.LVL53:
 185:main.c        **** void e_fuse_run( uint8_t new_address) {
 583              		.loc 1 185 0
 584 0036 2046     		mov	r0, r4
 585 0038 10BD     		pop	{r4, pc}
 586              		.cfi_endproc
 587              	.LFE78:
 588              		.size	e_fuse_stage9, .-e_fuse_stage9
 589 003a 00BF     		.section	.text.e_fuse_run,"ax",%progbits
 590              		.align	2
 591              		.global	e_fuse_run
 592              		.thumb
 593              		.thumb_func
 594              		.type	e_fuse_run, %function
 595              	e_fuse_run:
 596              	.LFB79:
 186:main.c        ****     if (new_address == GP2Y0E) {
 597              		.loc 1 186 0
 598              		.cfi_startproc
 599              		@ args = 0, pretend = 0, frame = 0
 600              		@ frame_needed = 0, uses_anonymous_args = 0
 601              	.LVL54:
 602 0000 10B5     		push	{r4, lr}
 603              		.cfi_def_cfa_offset 8
 604              		.cfi_offset 4, -8
 605              		.cfi_offset 14, -4
 187:main.c        ****         UART_PutString("[ERROR] The new address must be other than 0x08!\r\n");
 606              		.loc 1 187 0
 607 0002 4028     		cmp	r0, #64
 608 0004 03D1     		bne	.L43
 188:main.c        ****         return;
 609              		.loc 1 188 0
 610 0006 1748     		ldr	r0, .L47
 611              	.LVL55:
 612 0008 FFF7FEFF 		bl	UART_PutString
 613              	.LVL56:
 189:main.c        ****     }
 614              		.loc 1 189 0
 615 000c 10BD     		pop	{r4, pc}
 616              	.LVL57:
 617              	.L43:
 618 000e 0446     		mov	r4, r0
 191:main.c        ****         UART_PutString("[ERROR] The new address must be 0x0f or lower!\r\n");
 619              		.loc 1 191 0
 620 0010 0F28     		cmp	r0, #15
 621 0012 03D9     		bls	.L45
 192:main.c        ****         return;
 622              		.loc 1 192 0
 623 0014 1448     		ldr	r0, .L47+4
 624              	.LVL58:
 625 0016 FFF7FEFF 		bl	UART_PutString
 626              	.LVL59:
 193:main.c        ****     }
ARM GAS  C:\Users\LASER_2\AppData\Local\Temp\cc1aLcAs.s 			page 17


 627              		.loc 1 193 0
 628 001a 10BD     		pop	{r4, pc}
 629              	.LVL60:
 630              	.L45:
 195:main.c        ****     CyDelayUs(500);
 631              		.loc 1 195 0
 632 001c 0020     		movs	r0, #0
 633              	.LVL61:
 634 001e FFF7FEFF 		bl	VDAC8_SetValue
 635              	.LVL62:
 196:main.c        ****     e_fuse_stage1();
 636              		.loc 1 196 0
 637 0022 4FF4FA70 		mov	r0, #500
 638 0026 FFF7FEFF 		bl	CyDelayUs
 639              	.LVL63:
 197:main.c        ****     e_fuse_stage2();
 640              		.loc 1 197 0
 641 002a FFF7FEFF 		bl	e_fuse_stage1
 642              	.LVL64:
 198:main.c        ****     e_fuse_stage3();
 643              		.loc 1 198 0
 644 002e FFF7FEFF 		bl	e_fuse_stage2
 645              	.LVL65:
 199:main.c        ****     e_fuse_stage4( new_address);
 646              		.loc 1 199 0
 647 0032 FFF7FEFF 		bl	e_fuse_stage3
 648              	.LVL66:
 200:main.c        ****     e_fuse_stage5();
 649              		.loc 1 200 0
 650 0036 2046     		mov	r0, r4
 651 0038 FFF7FEFF 		bl	e_fuse_stage4
 652              	.LVL67:
 201:main.c        ****     e_fuse_stage6();
 653              		.loc 1 201 0
 654 003c FFF7FEFF 		bl	e_fuse_stage5
 655              	.LVL68:
 202:main.c        ****     e_fuse_stage7();
 656              		.loc 1 202 0
 657 0040 FFF7FEFF 		bl	e_fuse_stage6
 658              	.LVL69:
 203:main.c        ****     e_fuse_stage8();
 659              		.loc 1 203 0
 660 0044 FFF7FEFF 		bl	e_fuse_stage7
 661              	.LVL70:
 204:main.c        ****     const uint8_t result = e_fuse_stage9();
 662              		.loc 1 204 0
 663 0048 FFF7FEFF 		bl	e_fuse_stage8
 664              	.LVL71:
 205:main.c        ****     sprintf(buffer,"e_fuse_stage9():result => %d (0=success)\r\n", result);//lo codifica en ascci
 665              		.loc 1 205 0
 666 004c FFF7FEFF 		bl	e_fuse_stage9
 667              	.LVL72:
 206:main.c        ****     UART_PutString(buffer);
 668              		.loc 1 206 0
 669 0050 064C     		ldr	r4, .L47+8
 670 0052 0246     		mov	r2, r0
 671 0054 0649     		ldr	r1, .L47+12
ARM GAS  C:\Users\LASER_2\AppData\Local\Temp\cc1aLcAs.s 			page 18


 672 0056 2046     		mov	r0, r4
 673              	.LVL73:
 674 0058 FFF7FEFF 		bl	sprintf
 675              	.LVL74:
 207:main.c        **** }
 676              		.loc 1 207 0
 677 005c 2046     		mov	r0, r4
 678 005e FFF7FEFF 		bl	UART_PutString
 679              	.LVL75:
 680 0062 10BD     		pop	{r4, pc}
 681              	.L48:
 682              		.align	2
 683              	.L47:
 684 0064 10000000 		.word	.LC1
 685 0068 44000000 		.word	.LC2
 686 006c 00000000 		.word	.LANCHOR0
 687 0070 78000000 		.word	.LC3
 688              		.cfi_endproc
 689              	.LFE79:
 690              		.size	e_fuse_run, .-e_fuse_run
 691              		.section	.text.main,"ax",%progbits
 692              		.align	2
 693              		.global	main
 694              		.thumb
 695              		.thumb_func
 696              		.type	main, %function
 697              	main:
 698              	.LFB81:
 214:main.c        ****         case '5':{            
 215:main.c        ****             break;
 216:main.c        ****         }
 217:main.c        ****         
 218:main.c        ****         case '6':
 219:main.c        ****         {   // Atras Fin
 220:main.c        ****             break;
 221:main.c        ****         }
 222:main.c        ****         default:
 223:main.c        ****         {
 224:main.c        ****             break;
 225:main.c        ****         }
 226:main.c        ****     }
 227:main.c        **** }
 228:main.c        **** 
 229:main.c        **** 
 230:main.c        **** 
 231:main.c        **** int main(void)
 232:main.c        **** {
 699              		.loc 1 232 0
 700              		.cfi_startproc
 701              		@ Volatile: function does not return.
 702              		@ args = 0, pretend = 0, frame = 0
 703              		@ frame_needed = 0, uses_anonymous_args = 0
 704 0000 08B5     		push	{r3, lr}
 705              		.cfi_def_cfa_offset 8
 706              		.cfi_offset 3, -8
 707              		.cfi_offset 14, -4
 233:main.c        ****     /*Instancia lo modulos */
ARM GAS  C:\Users\LASER_2\AppData\Local\Temp\cc1aLcAs.s 			page 19


 234:main.c        ****     CyGlobalIntEnable; /* Enable global interrupts. */
 708              		.loc 1 234 0
 709              		.syntax unified
 710              	@ 234 "main.c" 1
 711 0002 62B6     		CPSIE   i
 712              	@ 0 "" 2
 235:main.c        ****     /*Inicia los Modulos */
 236:main.c        ****     UART_Start(); 
 713              		.loc 1 236 0
 714              		.thumb
 715              		.syntax unified
 716 0004 FFF7FEFF 		bl	UART_Start
 717              	.LVL76:
 237:main.c        ****     I2C_Start();
 718              		.loc 1 237 0
 719 0008 FFF7FEFF 		bl	I2C_Start
 720              	.LVL77:
 238:main.c        ****     VDAC8_Start();
 721              		.loc 1 238 0
 722 000c FFF7FEFF 		bl	VDAC8_Start
 723              	.LVL78:
 239:main.c        ****     VDAC8_SetValue(206);
 724              		.loc 1 239 0
 725 0010 CE20     		movs	r0, #206
 726 0012 FFF7FEFF 		bl	VDAC8_SetValue
 727              	.LVL79:
 240:main.c        ****     CyDelay(500);
 728              		.loc 1 240 0
 729 0016 4FF4FA70 		mov	r0, #500
 730 001a FFF7FEFF 		bl	CyDelay
 731              	.LVL80:
 241:main.c        ****     VDAC8_SetValue(0);
 732              		.loc 1 241 0
 733 001e 0020     		movs	r0, #0
 734 0020 FFF7FEFF 		bl	VDAC8_SetValue
 735              	.LVL81:
 242:main.c        ****     IRQRX_StartEx(InterrupRx);
 736              		.loc 1 242 0
 737 0024 0D48     		ldr	r0, .L52
 738 0026 FFF7FEFF 		bl	IRQRX_StartEx
 739              	.LVL82:
 243:main.c        ****     UART_PutString("Iniciando\r\n");
 740              		.loc 1 243 0
 741 002a 0D48     		ldr	r0, .L52+4
 742 002c FFF7FEFF 		bl	UART_PutString
 743              	.LVL83:
 244:main.c        ****     DS_init();//Inicia sensor de distancia
 744              		.loc 1 244 0
 745 0030 FFF7FEFF 		bl	DS_init
 746              	.LVL84:
 245:main.c        ****     UART_PutString("Salio\r\n");
 747              		.loc 1 245 0
 748 0034 0B48     		ldr	r0, .L52+8
 749 0036 FFF7FEFF 		bl	UART_PutString
 750              	.LVL85:
 751              	.L50:
 246:main.c        ****     //e_fuse_run(0x00);
ARM GAS  C:\Users\LASER_2\AppData\Local\Temp\cc1aLcAs.s 			page 20


 247:main.c        ****     
 248:main.c        ****     for(;;)
 249:main.c        ****     {
 250:main.c        ****             DS_get_data();     
 752              		.loc 1 250 0 discriminator 1
 753 003a FFF7FEFF 		bl	DS_get_data
 754              	.LVL86:
 251:main.c        ****             sprintf(buffer,"%d\n\r",distance_cm);//lo codifica en ascci
 755              		.loc 1 251 0 discriminator 1
 756 003e 0A4C     		ldr	r4, .L52+12
 757 0040 227B     		ldrb	r2, [r4, #12]	@ zero_extendqisi2
 758 0042 0A49     		ldr	r1, .L52+16
 759 0044 2046     		mov	r0, r4
 760 0046 FFF7FEFF 		bl	sprintf
 761              	.LVL87:
 252:main.c        ****             UART_PutString(buffer);
 762              		.loc 1 252 0 discriminator 1
 763 004a 2046     		mov	r0, r4
 764 004c FFF7FEFF 		bl	UART_PutString
 765              	.LVL88:
 253:main.c        ****             CyDelay(500);
 766              		.loc 1 253 0 discriminator 1
 767 0050 4FF4FA70 		mov	r0, #500
 768 0054 FFF7FEFF 		bl	CyDelay
 769              	.LVL89:
 770 0058 EFE7     		b	.L50
 771              	.L53:
 772 005a 00BF     		.align	2
 773              	.L52:
 774 005c 00000000 		.word	InterrupRx
 775 0060 A4000000 		.word	.LC4
 776 0064 B0000000 		.word	.LC5
 777 0068 00000000 		.word	.LANCHOR0
 778 006c B8000000 		.word	.LC6
 779              		.cfi_endproc
 780              	.LFE81:
 781              		.size	main, .-main
 782              		.global	distance_cm
 783              		.comm	dato,1,1
 784              		.global	buffer
 785              		.section	.rodata.str1.4,"aMS",%progbits,1
 786              		.align	2
 787              	.LC0:
 788 0000 73686966 		.ascii	"shift %02X\012\015\000"
 788      74202530 
 788      32580A0D 
 788      00
 789 000d 000000   		.space	3
 790              	.LC1:
 791 0010 5B455252 		.ascii	"[ERROR] The new address must be other than 0x08!\015"
 791      4F525D20 
 791      54686520 
 791      6E657720 
 791      61646472 
 792 0041 0A00     		.ascii	"\012\000"
 793 0043 00       		.space	1
 794              	.LC2:
ARM GAS  C:\Users\LASER_2\AppData\Local\Temp\cc1aLcAs.s 			page 21


 795 0044 5B455252 		.ascii	"[ERROR] The new address must be 0x0f or lower!\015\012"
 795      4F525D20 
 795      54686520 
 795      6E657720 
 795      61646472 
 796 0074 00       		.ascii	"\000"
 797 0075 000000   		.space	3
 798              	.LC3:
 799 0078 655F6675 		.ascii	"e_fuse_stage9():result => %d (0=success)\015\012\000"
 799      73655F73 
 799      74616765 
 799      3928293A 
 799      72657375 
 800 00a3 00       		.space	1
 801              	.LC4:
 802 00a4 496E6963 		.ascii	"Iniciando\015\012\000"
 802      69616E64 
 802      6F0D0A00 
 803              	.LC5:
 804 00b0 53616C69 		.ascii	"Salio\015\012\000"
 804      6F0D0A00 
 805              	.LC6:
 806 00b8 25640A0D 		.ascii	"%d\012\015\000"
 806      00
 807              		.bss
 808              		.align	2
 809              		.set	.LANCHOR0,. + 0
 810              		.type	buffer, %object
 811              		.size	buffer, 12
 812              	buffer:
 813 0000 00000000 		.space	12
 813      00000000 
 813      00000000 
 814              		.type	distance_cm, %object
 815              		.size	distance_cm, 1
 816              	distance_cm:
 817 000c 00       		.space	1
 818              		.text
 819              	.Letext0:
 820              		.file 2 "c:\\program files (x86)\\cypress\\psoc creator\\4.2\\psoc creator\\import\\gnu\\arm\\5.4.
 821              		.file 3 "c:\\program files (x86)\\cypress\\psoc creator\\4.2\\psoc creator\\import\\gnu\\arm\\5.4.
 822              		.file 4 "Generated_Source\\PSoC5/core_cm3.h"
 823              		.file 5 "Generated_Source\\PSoC5/UART.h"
 824              		.file 6 "Generated_Source\\PSoC5/I2C.h"
 825              		.file 7 "c:\\program files (x86)\\cypress\\psoc creator\\4.2\\psoc creator\\import\\gnu\\arm\\5.4.
 826              		.file 8 "Generated_Source\\PSoC5/VDAC8.h"
 827              		.file 9 "Generated_Source\\PSoC5/CyLib.h"
 828              		.file 10 "Generated_Source\\PSoC5/IRQRX.h"